Certificate:
    Data:
        Version: 3 (0x2)
        Serial Number:
            d2:6c:68:f2:f1:8d:30:4e
        Signature Algorithm: sha1WithRSAEncryption
        Issuer: C=PT, O=Universidade do Minho, OU=HASLab, CN=CA de SSI
        Validity
            Not Before: May 27 11:20:56 2015 GMT
            Not After : May 26 11:20:56 2016 GMT
        Subject: C=PT, ST=Some-State, L=Braga, O=Universidade do Minho, OU=HASLab, CN=CA grupo 27720 25322
        Subject Public Key Info:
            Public Key Algorithm: rsaEncryption
            RSA Public Key: (2048 bit)
                Modulus (2048 bit):
                    00:bc:d8:b6:6e:11:af:3e:6e:1e:95:4a:29:f2:3b:
                    a4:ea:0a:37:4a:33:b8:d1:40:13:d0:48:19:4d:27:
                    06:67:83:06:db:0f:cc:68:b1:90:be:44:ac:4c:40:
                    53:50:9c:b1:f6:91:8c:0b:c7:69:ef:43:cb:f2:1a:
                    fd:71:a4:73:5a:b7:4c:e3:6d:95:f6:15:c2:72:55:
                    4f:69:4c:df:fe:7d:bc:c4:94:c1:04:9c:9e:e9:41:
                    3d:19:d3:2d:39:3a:ff:ee:a0:d5:5c:6a:94:10:e5:
                    3b:49:97:66:85:d4:bd:21:ce:d7:f1:62:bb:af:6d:
                    cb:22:67:d3:47:99:22:ff:bd:a3:e2:3c:bb:3e:86:
                    59:cc:c3:d9:61:b8:f9:df:ad:96:fc:65:37:cd:a4:
                    6d:73:86:e1:04:29:52:87:4a:14:5d:71:cd:ff:93:
                    64:32:c6:c9:47:02:9f:57:a8:87:c7:9d:97:a4:5d:
                    8a:98:2f:23:37:69:9f:1e:b7:9f:ed:2b:fc:31:c2:
                    78:24:c4:d3:6d:9b:fe:91:e3:2b:5c:0f:46:ef:e9:
                    6c:95:2a:50:be:a2:91:5a:c1:ac:d6:17:b8:30:0a:
                    33:a9:89:b0:2f:93:a8:fd:ab:62:c8:a7:f1:d2:ef:
                    6c:a3:49:a3:33:d6:a7:e8:92:da:98:d9:a2:37:6b:
                    ca:49
                Exponent: 65537 (0x10001)
        X509v3 extensions:
            X509v3 Subject Key Identifier: 
                DF:C6:6F:8F:D0:D6:37:49:4A:44:59:1E:BA:15:15:59:64:52:46:4F
            X509v3 Authority Key Identifier: 
                keyid:8F:A0:8E:92:C7:65:94:B8:39:4D:32:B3:6A:64:E7:98:74:F8:71:B0
                DirName:/C=PT/O=Universidade do Minho/OU=HASLab/CN=CA de SSI
                serial:D2:6C:68:F2:F1:8D:30:3A

            X509v3 Basic Constraints: 
                CA:TRUE
    Signature Algorithm: sha1WithRSAEncryption
        91:0a:b5:91:06:d6:fc:3f:b2:49:26:f7:4c:c0:b5:a7:a2:92:
        70:cb:92:9d:4e:14:4b:8e:1e:7b:c3:87:8f:39:f6:ac:84:69:
        fa:e5:dc:07:00:93:d4:b3:36:b0:6d:38:6d:a7:cc:d2:b9:a6:
        97:65:c8:e3:b0:fa:31:af:e3:b1:a3:f7:77:ac:08:eb:78:06:
        3d:97:7e:49:c9:71:12:91:c8:dd:b3:f1:6e:17:16:61:c2:d5:
        39:29:e0:7c:dc:2d:b9:88:32:b7:28:73:0e:0e:88:18:48:fb:
        5e:a1:2a:80:40:3d:6e:c9:13:67:36:1b:64:6c:f9:fd:96:2f:
        d1:31
-----BEGIN CERTIFICATE-----
MIIDjTCCAvagAwIBAgIJANJsaPLxjTBOMA0GCSqGSIb3DQEBBQUAMFIxCzAJBgNV
BAYTAlBUMR4wHAYDVQQKExVVbml2ZXJzaWRhZGUgZG8gTWluaG8xDzANBgNVBAsT
BkhBU0xhYjESMBAGA1UEAxMJQ0EgZGUgU1NJMB4XDTE1MDUyNzExMjA1NloXDTE2
MDUyNjExMjA1NlowgYIxCzAJBgNVBAYTAlBUMRMwEQYDVQQIDApTb21lLVN0YXRl
MQ4wDAYDVQQHDAVCcmFnYTEeMBwGA1UECgwVVW5pdmVyc2lkYWRlIGRvIE1pbmhv
MQ8wDQYDVQQLDAZIQVNMYWIxHTAbBgNVBAMMFENBIGdydXBvIDI3NzIwIDI1MzIy
MIIBIjANBgkqhkiG9w0BAQEFAAOCAQ8AMIIBCgKCAQEAvNi2bhGvPm4elUop8juk
6go3SjO40UAT0EgZTScGZ4MG2w/MaLGQvkSsTEBTUJyx9pGMC8dp70PL8hr9caRz
WrdM422V9hXCclVPaUzf/n28xJTBBJye6UE9GdMtOTr/7qDVXGqUEOU7SZdmhdS9
Ic7X8WK7r23LImfTR5ki/72j4jy7PoZZzMPZYbj5362W/GU3zaRtc4bhBClSh0oU
XXHN/5NkMsbJRwKfV6iHx52XpF2KmC8jN2mfHref7Sv8McJ4JMTTbZv+keMrXA9G
7+lslSpQvqKRWsGs1he4MAozqYmwL5Oo/atiyKfx0u9so0mjM9an6JLamNmiN2vK
SQIDAQABo4G1MIGyMB0GA1UdDgQWBBTfxm+P0NY3SUpEWR66FRVZZFJGTzCBggYD
VR0jBHsweYAUj6COksdllLg5TTKzamTnmHT4cbChVqRUMFIxCzAJBgNVBAYTAlBU
MR4wHAYDVQQKExVVbml2ZXJzaWRhZGUgZG8gTWluaG8xDzANBgNVBAsTBkhBU0xh
YjESMBAGA1UEAxMJQ0EgZGUgU1NJggkA0mxo8vGNMDowDAYDVR0TBAUwAwEB/zAN
BgkqhkiG9w0BAQUFAAOBgQCRCrWRBtb8P7JJJvdMwLWnopJwy5KdThRLjh57w4eP
OfashGn65dwHAJPUszawbThtp8zSuaaXZcjjsPoxr+Oxo/d3rAjreAY9l35JyXES
kcjds/FuFxZhwtU5KeB83C25iDK3KHMODogYSPteoSqAQD1uyRNnNhtkbPn9li/R
MQ==
-----END CERTIFICATE-----
