Certificate:
    Data:
        Version: 3 (0x2)
        Serial Number: 1 (0x1)
    Signature Algorithm: sha256WithRSAEncryption
        Issuer: C=PT, ST=Some-State, L=Braga, O=Universidade do Minho, OU=HASLab, CN=CA grupo 27720 25322
        Validity
            Not Before: Jun  1 10:11:24 2015 GMT
            Not After : May 31 10:11:24 2016 GMT
        Subject: C=PT, ST=Some-State, O=Universidade do Minho, OU=HASLab, CN=davidluismonizbranco/emailAddress=davidbranco88@gmail.com
        Subject Public Key Info:
            Public Key Algorithm: rsaEncryption
                Public-Key: (2048 bit)
                Modulus:
                    00:d2:94:15:27:44:e6:41:7c:5b:34:a3:d3:48:81:
                    21:e7:b7:df:23:78:dd:73:0c:10:78:6a:55:9e:e9:
                    62:76:32:8a:03:33:ad:4d:73:09:a0:90:d4:1d:49:
                    4c:48:0d:10:db:8d:9b:51:15:bf:08:e7:ce:c4:0d:
                    58:dd:5a:72:26:d6:79:8d:a1:57:7d:1a:11:06:a0:
                    f1:58:b3:f1:45:d1:c6:68:f7:c9:a4:b4:ea:61:1a:
                    de:be:93:d9:28:bf:2c:a6:47:e4:8a:0e:f5:a0:bc:
                    ff:71:3a:c0:32:98:88:a4:6d:bb:c7:dd:6e:10:20:
                    1e:09:f2:d1:4d:b4:84:d4:ce:34:8e:75:e6:cf:70:
                    7e:d8:e3:83:3e:05:49:d0:12:09:50:f0:66:33:93:
                    da:8f:55:96:ae:ee:a3:4a:7d:63:9a:cf:ff:a9:8b:
                    3d:a3:f2:f8:10:ff:65:5a:32:e6:fa:0a:95:a7:a4:
                    28:71:ed:46:2d:c3:c2:36:df:ce:22:1b:85:17:d5:
                    c4:45:38:60:6a:a9:52:c4:0e:32:dc:a9:5e:14:84:
                    08:21:c3:a0:18:f5:2a:de:57:78:1c:35:86:eb:0d:
                    a3:21:df:f4:d8:11:cb:34:31:59:16:5b:0c:31:e4:
                    c8:0a:0a:ed:1b:05:bf:7c:3d:77:21:a6:18:54:17:
                    5a:b9
                Exponent: 65537 (0x10001)
        X509v3 extensions:
            X509v3 Basic Constraints: 
                CA:FALSE
            Netscape Comment: 
                OpenSSL Generated Certificate
            X509v3 Subject Key Identifier: 
                E3:9D:0E:CA:BE:A9:92:54:B1:AA:E0:B9:DC:49:54:0A:BA:B5:69:48
            X509v3 Authority Key Identifier: 
                keyid:DF:C6:6F:8F:D0:D6:37:49:4A:44:59:1E:BA:15:15:59:64:52:46:4F

    Signature Algorithm: sha256WithRSAEncryption
         1c:0e:b7:e8:9e:9c:de:e0:3a:ad:11:a2:da:01:c2:bd:66:e7:
         e0:ec:75:e3:36:8e:ea:9a:a8:cb:7a:ca:f3:88:85:0c:ad:a7:
         a6:b7:13:cd:a6:98:a5:a5:39:84:47:5b:07:dd:ce:ee:04:63:
         98:84:e7:bc:24:96:0f:4f:a8:9b:1b:e9:3f:e5:e4:0d:b1:56:
         7c:eb:ef:19:3f:af:c8:1c:50:0c:b3:70:30:27:08:87:42:a8:
         b9:0f:46:a9:a3:57:7f:2c:d5:e7:62:8d:ee:bc:ac:bb:52:81:
         10:4a:6f:9c:ee:4d:71:11:06:b7:fc:20:47:88:66:e5:df:5a:
         cb:7c:d5:36:d0:0a:9f:de:26:44:00:a2:42:41:59:e3:d7:ee:
         6a:45:21:12:a2:11:64:88:e8:1a:07:8f:80:85:17:a5:01:76:
         70:a4:d4:a5:6e:cf:36:7c:d9:ea:ee:06:33:f2:bc:7d:34:ec:
         0b:33:7c:16:9f:fe:ef:ce:30:27:c0:fc:12:fa:33:5a:c7:af:
         0d:fd:4f:71:0b:12:6f:3f:fa:18:01:06:29:83:d0:0e:d8:ab:
         0a:c7:1c:84:d4:f7:e9:6d:a7:f4:e8:89:4e:da:f0:69:e4:b9:
         1a:1f:44:5b:d7:e1:8e:de:7b:7e:ae:85:66:67:3c:81:bc:83:
         30:13:9b:9b
-----BEGIN CERTIFICATE-----
MIIEFDCCAvygAwIBAgIBATANBgkqhkiG9w0BAQsFADCBgjELMAkGA1UEBhMCUFQx
EzARBgNVBAgMClNvbWUtU3RhdGUxDjAMBgNVBAcMBUJyYWdhMR4wHAYDVQQKDBVV
bml2ZXJzaWRhZGUgZG8gTWluaG8xDzANBgNVBAsMBkhBU0xhYjEdMBsGA1UEAwwU
Q0EgZ3J1cG8gMjc3MjAgMjUzMjIwHhcNMTUwNjAxMTAxMTI0WhcNMTYwNTMxMTAx
MTI0WjCBmjELMAkGA1UEBhMCUFQxEzARBgNVBAgMClNvbWUtU3RhdGUxHjAcBgNV
BAoMFVVuaXZlcnNpZGFkZSBkbyBNaW5obzEPMA0GA1UECwwGSEFTTGFiMR0wGwYD
VQQDDBRkYXZpZGx1aXNtb25pemJyYW5jbzEmMCQGCSqGSIb3DQEJARYXZGF2aWRi
cmFuY284OEBnbWFpbC5jb20wggEiMA0GCSqGSIb3DQEBAQUAA4IBDwAwggEKAoIB
AQDSlBUnROZBfFs0o9NIgSHnt98jeN1zDBB4alWe6WJ2MooDM61NcwmgkNQdSUxI
DRDbjZtRFb8I587EDVjdWnIm1nmNoVd9GhEGoPFYs/FF0cZo98mktOphGt6+k9ko
vyymR+SKDvWgvP9xOsAymIikbbvH3W4QIB4J8tFNtITUzjSOdebPcH7Y44M+BUnQ
EglQ8GYzk9qPVZau7qNKfWOaz/+piz2j8vgQ/2VaMub6CpWnpChx7UYtw8I2384i
G4UX1cRFOGBqqVLEDjLcqV4UhAghw6AY9SreV3gcNYbrDaMh3/TYEcs0MVkWWwwx
5MgKCu0bBb98PXchphhUF1q5AgMBAAGjezB5MAkGA1UdEwQCMAAwLAYJYIZIAYb4
QgENBB8WHU9wZW5TU0wgR2VuZXJhdGVkIENlcnRpZmljYXRlMB0GA1UdDgQWBBTj
nQ7KvqmSVLGq4LncSVQKurVpSDAfBgNVHSMEGDAWgBTfxm+P0NY3SUpEWR66FRVZ
ZFJGTzANBgkqhkiG9w0BAQsFAAOCAQEAHA636J6c3uA6rRGi2gHCvWbn4Ox14zaO
6pqoy3rK84iFDK2nprcTzaaYpaU5hEdbB93O7gRjmITnvCSWD0+omxvpP+XkDbFW
fOvvGT+vyBxQDLNwMCcIh0KouQ9GqaNXfyzV52KN7rysu1KBEEpvnO5NcREGt/wg
R4hm5d9ay3zVNtAKn94mRACiQkFZ49fuakUhEqIRZIjoGgePgIUXpQF2cKTUpW7P
NnzZ6u4GM/K8fTTsCzN8Fp/+784wJ8D8EvozWsevDf1PcQsSbz/6GAEGKYPQDtir
CscchNT36W2n9OiJTtrwaeS5Gh9EW9fhjt57fq6FZmc8gbyDMBObmw==
-----END CERTIFICATE-----
